; Function Attrs: mustprogress uwtable
define hidden noundef range(i32 -1, 2) i32 @_ZN4lean12type_checker29try_string_lit_expansion_coreERKNS_4exprES3_(ptr noundef nonnull align 8 dereferenceable(48) %0, ptr noundef nonnull align 8 dereferenceable(8) %1, ptr noundef nonnull align 8 dereferenceable(8) %2) local_unnamed_addr #0 align 2 personality ptr @__gxx_personality_v0 {
  %4 = alloca %"class.lean::expr", align 8
  %5 = load ptr, ptr %1, align 8, !tbaa !3
  %6 = getelementptr i8, ptr %5, i64 4
  %.val.i.i.i.i.i = load i32, ptr %6, align 4
  %.mask.i.i = and i32 %.val.i.i.i.i.i, -16777216
  %7 = icmp eq i32 %.mask.i.i, 150994944
  br i1 %7, label %_ZN4lean13is_string_litERKNS_4exprE.exit, label %_ZN4lean13is_string_litERKNS_4exprE.exit.thread

_ZN4lean13is_string_litERKNS_4exprE.exit:         ; preds = %3
  %8 = getelementptr inbounds nuw i8, ptr %5, i64 8
  %9 = load ptr, ptr %8, align 8, !tbaa !3
  %10 = getelementptr i8, ptr %9, i64 4
  %.val.i.i.i.i = load i32, ptr %10, align 4
  %.mask.i = and i32 %.val.i.i.i.i, -16777216
  %11 = icmp eq i32 %.mask.i, 16777216
  br i1 %11, label %12, label %_ZN4lean13is_string_litERKNS_4exprE.exit.thread

12:                                               ; preds = %_ZN4lean13is_string_litERKNS_4exprE.exit
  %13 = load ptr, ptr %2, align 8, !tbaa !3
  %14 = getelementptr i8, ptr %13, i64 4
  %.val.i.i.i.i8 = load i32, ptr %14, align 4
  %.mask.i9 = and i32 %.val.i.i.i.i8, -16777216
  %15 = icmp eq i32 %.mask.i9, 83886080
  br i1 %15, label %16, label %_ZN4lean13is_string_litERKNS_4exprE.exit.thread

16:                                               ; preds = %12
  %17 = getelementptr inbounds nuw i8, ptr %13, i64 8
  %18 = load ptr, ptr @_ZN4leanL11g_string_mkE, align 8, !tbaa !139
  %19 = tail call noundef zeroext i1 @_ZN4lean8is_equalERKNS_4exprES2_(ptr noundef nonnull align 8 dereferenceable(8) %17, ptr noundef nonnull align 8 dereferenceable(8) %18)
  br i1 %19, label %20, label %_ZN4lean13is_string_litERKNS_4exprE.exit.thread

20:                                               ; preds = %16
  call void @llvm.lifetime.start.p0(i64 8, ptr nonnull %4) #19
  call void @_ZN4lean25string_lit_to_constructorERKNS_4exprE(ptr dead_on_unwind nonnull writable sret(%"class.lean::expr") align 8 %4, ptr noundef nonnull align 8 dereferenceable(8) %1)
  %21 = invoke noundef zeroext i1 @_ZN4lean12type_checker14is_def_eq_coreERKNS_4exprES3_(ptr noundef nonnull align 8 dereferenceable(48) %0, ptr noundef nonnull align 8 dereferenceable(8) %4, ptr noundef nonnull align 8 dereferenceable(8) %2)
          to label %22 unwind label %37

22:                                               ; preds = %20
  %23 = select i1 %21, i32 1, i32 -1
  %24 = load ptr, ptr %4, align 8, !tbaa !3
  %25 = ptrtoint ptr %24 to i64
  %26 = and i64 %25, 1
  %.not.i.i = icmp eq i64 %26, 0
  br i1 %.not.i.i, label %27, label %_ZN4lean10object_refD2Ev.exit

27:                                               ; preds = %22
  %28 = load i32, ptr %24, align 4, !tbaa !8
  %29 = icmp sgt i32 %28, 1
  br i1 %29, label %30, label %32, !prof !11

30:                                               ; preds = %27
  %31 = add nsw i32 %28, -1
  store i32 %31, ptr %24, align 4, !tbaa !8
  br label %_ZN4lean10object_refD2Ev.exit

32:                                               ; preds = %27
  %.not.i.i.i.i = icmp eq i32 %28, 0
  br i1 %.not.i.i.i.i, label %_ZN4lean10object_refD2Ev.exit, label %33

33:                                               ; preds = %32
  invoke void @lean_dec_ref_cold(ptr noundef nonnull %24)
          to label %_ZN4lean10object_refD2Ev.exit unwind label %34

34:                                               ; preds = %33
  %35 = landingpad { ptr, i32 }
          catch ptr null
  %36 = extractvalue { ptr, i32 } %35, 0
  call void @__clang_call_terminate(ptr %36) #21
  unreachable

_ZN4lean10object_refD2Ev.exit:                    ; preds = %22, %30, %32, %33
  call void @llvm.lifetime.end.p0(i64 8, ptr nonnull %4) #19
  br label %_ZN4lean13is_string_litERKNS_4exprE.exit.thread

37:                                               ; preds = %20
  %38 = landingpad { ptr, i32 }
          cleanup
  call void @_ZN4lean10object_refD2Ev(ptr noundef nonnull align 8 dereferenceable(8) %4) #19
  call void @llvm.lifetime.end.p0(i64 8, ptr nonnull %4) #19
  resume { ptr, i32 } %38

_ZN4lean13is_string_litERKNS_4exprE.exit.thread:  ; preds = %3, %_ZN4lean13is_string_litERKNS_4exprE.exit, %12, %16, %_ZN4lean10object_refD2Ev.exit
  %.0 = phi i32 [ %23, %_ZN4lean10object_refD2Ev.exit ], [ 0, %16 ], [ 0, %12 ], [ 0, %_ZN4lean13is_string_litERKNS_4exprE.exit ], [ 0, %3 ]
  ret i32 %.0
}